target datalayout = "e-m:e-p270:32:32-p271:32:32-p272:64:64-i64:64-i128:128-f80:128-n8:16:32:64-S128"
target triple = "x86_64-pc-linux-gnu"

%struct.pkcs7_st = type { ptr, i64, i32, i32, ptr, %union.anon, %struct.PKCS7_CTX_st }
%union.anon = type { ptr }
%struct.PKCS7_CTX_st = type { ptr, ptr }
%struct.pkcs7_signed_st = type { ptr, ptr, ptr, ptr, ptr, ptr }
%struct.pkcs7_signer_info_st = type { ptr, ptr, ptr, ptr, ptr, ptr, ptr, ptr, ptr }
%struct.pkcs7_issuer_and_serial_st = type { ptr, ptr }

; Function Attrs: nounwind uwtable
define ptr @PKCS7_cert_from_signer_info(ptr noundef %0, ptr noundef %1) #0 {
  %3 = alloca ptr, align 8
  %4 = alloca ptr, align 8
  %5 = alloca ptr, align 8
  store ptr %0, ptr %4, align 8, !tbaa !3
  store ptr %1, ptr %5, align 8, !tbaa !52
  %6 = load ptr, ptr %4, align 8, !tbaa !3
  %7 = getelementptr inbounds nuw %struct.pkcs7_st, ptr %6, i32 0, i32 4
  %8 = load ptr, ptr %7, align 8, !tbaa !14
  %9 = call i32 @OBJ_obj2nid(ptr noundef %8)
  %10 = icmp eq i32 %9, 22
  br i1 %10, label %11, label %28

11:                                               ; preds = %2
  %12 = load ptr, ptr %4, align 8, !tbaa !3
  %13 = getelementptr inbounds nuw %struct.pkcs7_st, ptr %12, i32 0, i32 5
  %14 = load ptr, ptr %13, align 8, !tbaa !19
  %15 = getelementptr inbounds nuw %struct.pkcs7_signed_st, ptr %14, i32 0, i32 2
  %16 = load ptr, ptr %15, align 8, !tbaa !104
  %17 = load ptr, ptr %5, align 8, !tbaa !52
  %18 = getelementptr inbounds nuw %struct.pkcs7_signer_info_st, ptr %17, i32 0, i32 1
  %19 = load ptr, ptr %18, align 8, !tbaa !87
  %20 = getelementptr inbounds nuw %struct.pkcs7_issuer_and_serial_st, ptr %19, i32 0, i32 0
  %21 = load ptr, ptr %20, align 8, !tbaa !133
  %22 = load ptr, ptr %5, align 8, !tbaa !52
  %23 = getelementptr inbounds nuw %struct.pkcs7_signer_info_st, ptr %22, i32 0, i32 1
  %24 = load ptr, ptr %23, align 8, !tbaa !87
  %25 = getelementptr inbounds nuw %struct.pkcs7_issuer_and_serial_st, ptr %24, i32 0, i32 1
  %26 = load ptr, ptr %25, align 8, !tbaa !88
  %27 = call ptr @X509_find_by_issuer_and_serial(ptr noundef %16, ptr noundef %21, ptr noundef %26)
  store ptr %27, ptr %3, align 8
  br label %29

28:                                               ; preds = %2
  store ptr null, ptr %3, align 8
  br label %29

29:                                               ; preds = %28, %11
  %30 = load ptr, ptr %3, align 8
  ret ptr %30
}