; Function Attrs: nounwind uwtable
define ptr @PKCS7_cert_from_signer_info(ptr noundef readonly captures(none) %0, ptr noundef readonly captures(none) %1) local_unnamed_addr #0 {
  %3 = getelementptr inbounds nuw i8, ptr %0, i64 24
  %4 = load ptr, ptr %3, align 8, !tbaa !3
  %5 = tail call i32 @OBJ_obj2nid(ptr noundef %4) #7
  %6 = icmp eq i32 %5, 22
  br i1 %6, label %7, label %18

7:                                                ; preds = %2
  %8 = getelementptr inbounds nuw i8, ptr %0, i64 32
  %9 = load ptr, ptr %8, align 8, !tbaa !14
  %10 = getelementptr inbounds nuw i8, ptr %9, i64 16
  %11 = load ptr, ptr %10, align 8, !tbaa !100
  %12 = getelementptr inbounds nuw i8, ptr %1, i64 8
  %13 = load ptr, ptr %12, align 8, !tbaa !62
  %14 = load ptr, ptr %13, align 8, !tbaa !101
  %15 = getelementptr inbounds nuw i8, ptr %13, i64 8
  %16 = load ptr, ptr %15, align 8, !tbaa !63
  %17 = tail call ptr @X509_find_by_issuer_and_serial(ptr noundef %11, ptr noundef %14, ptr noundef %16) #7
  br label %18

18:                                               ; preds = %2, %7
  %.0 = phi ptr [ %17, %7 ], [ null, %2 ]
  ret ptr %.0
}